(dp0
S'OriginalConfig'
p1
ccopy_reg
_reconstructor
p2
(cWMCore.Configuration
Configuration
p3
c__builtin__
object
p4
Ntp5
Rp6
(dp7
S'Site'
p8
g2
(cWMCore.Configuration
ConfigSection
p9
g4
Ntp10
Rp11
(dp12
S'_internal_skipChecks'
p13
I00
sS'_internal_documentation'
p14
S''
p15
sS'_internal_settings'
p16
c__builtin__
set
p17
((lp18
S'blacklist'
p19
aS'storageSite'
p20
atp21
Rp22
sS'_internal_name'
p23
g8
sS'_internal_docstrings'
p24
(dp25
sg19
(lp26
S'T2_BR_SPRACE'
p27
asS'_internal_children'
p28
g17
((lp29
tp30
Rp31
sg20
S'T2_AT_Vienna'
p32
sS'_internal_parent_ref'
p33
NsbsS'_internal_sections'
p34
(lp35
S'General'
p36
aS'JobType'
p37
aS'Data'
p38
ag8
aS'User'
p39
aS'Debug'
p40
asg39
g2
(g9
g4
Ntp41
Rp42
(dp43
g13
I00
sg14
g15
sg16
g17
((lp44
tp45
Rp46
sg23
g39
sg24
(dp47
sg28
g17
((lp48
tp49
Rp50
sg33
Nsbsg40
g2
(g9
g4
Ntp51
Rp52
(dp53
g13
I00
sg14
g15
sg16
g17
((lp54
tp55
Rp56
sg23
g40
sg24
(dp57
sg28
g17
((lp58
tp59
Rp60
sg33
Nsbsg36
g2
(g9
g4
Ntp61
Rp62
(dp63
g13
I00
sg14
g15
sg16
g17
((lp64
S'transferOutputs'
p65
aS'workArea'
p66
atp67
Rp68
sg23
g36
sg24
(dp69
sg65
I01
sg28
g17
((lp70
tp71
Rp72
sg33
Nsg66
S'crab_projects'
p73
sbsg38
g2
(g9
g4
Ntp74
Rp75
(dp76
S'inputDataset'
p77
S'/ZJetsToNuNu_HT-400To600_TuneCP5_13TeV-madgraphMLM-pythia8/RunIISummer20UL18RECO-106X_upgrade2018_realistic_v11_L1v1-v1/AODSIM'
p78
sS'outputDatasetTag'
p79
S'ZJetToNuNu_HT-400To600'
p80
sg13
I00
sS'splitting'
p81
S'Automatic'
p82
sg14
g15
sg16
g17
((lp83
g77
ag79
aS'publication'
p84
aS'partialDataset'
p85
aS'inputDBS'
p86
ag81
atp87
Rp88
sg85
I01
sg23
g38
sg86
S'global'
p89
sg24
(dp90
sg28
g17
((lp91
tp92
Rp93
sg33
Nsg84
I01
sbsg37
g2
(g9
g4
Ntp94
Rp95
(dp96
S'numCores'
p97
I4
sg13
I00
sg14
g15
sg16
g17
((lp98
S'psetName'
p99
aS'pluginName'
p100
ag97
aS'maxMemoryMB'
p101
atp102
Rp103
sg23
g37
sg24
(dp104
sg100
S'Analysis'
p105
sg28
g17
((lp106
tp107
Rp108
sg99
S'/users/alikaan.gueven/COPY/CMSSW_10_6_28/src/SoftDisplacedVertices/CustomMiniAOD/configuration/MC_UL18_CustomMiniAOD.py'
p109
sg33
Nsg101
I8000
sbsbsS'voGroup'
p110
g15
sS'Server'
p111
S'cmsweb.cern.ch'
p112
sS'instance'
p113
S'prod'
p114
sS'RequestName'
p115
V240318_111721:aguven_crab_20240318_121601
p116
sS'voRole'
p117
S'NULL'
p118
sS'Port'
p119
g15
s.