(dp0
VServer
p1
Vcmsweb.cern.ch
p2
sVPort
p3
V
p4
sVRequestName
p5
V240301_104227:aguven_crab_20240301_114221
p6
sVvoRole
p7
VNULL
p8
sVvoGroup
p9
g4
sVinstance
p10
Vprod
p11
sVOriginalConfig
p12
ccopy_reg
_reconstructor
p13
(cWMCore.Configuration
Configuration
p14
c__builtin__
object
p15
Ntp16
Rp17
(dp18
V_internal_sections
p19
(lp20
VGeneral
p21
aVJobType
p22
aVData
p23
aVSite
p24
aVUser
p25
aVDebug
p26
asg21
g13
(cWMCore.Configuration
ConfigSection
p27
g15
Ntp28
Rp29
(dp30
V_internal_documentation
p31
g4
sV_internal_name
p32
g21
sV_internal_settings
p33
c__builtin__
set
p34
((lp35
VworkArea
p36
aVrequestName
p37
aVtransferOutputs
p38
ag10
atp39
Rp40
sV_internal_docstrings
p41
(dp42
sV_internal_children
p43
g34
((lp44
tp45
Rp46
sV_internal_parent_ref
p47
NsV_internal_skipChecks
p48
I00
sg38
I01
sg36
V.
p49
sg37
VNone
p50
sg10
Vprod
p51
sbsg22
g13
(g27
g15
Ntp52
Rp53
(dp54
g31
g4
sg32
g22
sg33
g34
((lp55
VnumCores
p56
aVpsetName
p57
aVmaxMemoryMB
p58
aVpluginName
p59
aVcopyCatWorkdir
p60
aVcopyCatInstance
p61
aVcopyCatTaskname
p62
atp63
Rp64
sg41
(dp65
sg43
g34
((lp66
tp67
Rp68
sg47
Nsg48
I00
sg57
V/users/alikaan.gueven/COPY/CMSSW_10_6_28/src/SoftDisplacedVertices/CustomMiniAOD/testK/crab_projects/crab_20240226_135242/debug_sandbox/debug/originalPSet.py
p69
sg59
VRecover
p70
sg56
L4L
sg58
L8000L
sg62
V240226_125304:aguven_crab_20240226_135242
p71
sg60
V/users/alikaan.gueven/COPY/CMSSW_10_6_28/src/SoftDisplacedVertices/CustomMiniAOD/testK/crab_projects/crab_20240226_135242
p72
sg61
g51
sbsg23
g13
(g27
g15
Ntp73
Rp74
(dp75
g31
g4
sg32
g23
sg33
g34
((lp76
Vpublication
p77
aVinputDBS
p78
aVsplitting
p79
aVoutputDatasetTag
p80
aVpartialDataset
p81
aVinputDataset
p82
aVlumiMask
p83
atp84
Rp85
sg41
(dp86
sg43
g34
((lp87
tp88
Rp89
sg47
Nsg48
I00
sg82
V/MET/Run2018B-15Feb2022_UL2018-v1/AOD
p90
sg80
VRun2018B-15Feb2022
p91
sg77
I01
sg81
I01
sg78
Vglobal
p92
sg79
VAutomatic
p93
sg83
V/users/alikaan.gueven/COPY/CMSSW_10_6_28/src/SoftDisplacedVertices/CustomMiniAOD/testK/crab_projects/crab_20240226_135242/results/notPublishedLumis.json
p94
sbsg24
g13
(g27
g15
Ntp95
Rp96
(dp97
g31
g4
sg32
g24
sg33
g34
((lp98
VstorageSite
p99
aVblacklist
p100
atp101
Rp102
sg41
(dp103
sg43
g34
((lp104
tp105
Rp106
sg47
Nsg48
I00
sg100
(lp107
VT2_BR_SPRACE
p108
asg99
VT2_AT_Vienna
p109
sbsg25
g13
(g27
g15
Ntp110
Rp111
(dp112
g31
g4
sg32
g25
sg33
g34
((lp113
tp114
Rp115
sg41
(dp116
sg43
g34
((lp117
tp118
Rp119
sg47
Nsg48
I00
sbsg26
g13
(g27
g15
Ntp120
Rp121
(dp122
g31
g4
sg32
g26
sg33
g34
((lp123
tp124
Rp125
sg41
(dp126
sg43
g34
((lp127
tp128
Rp129
sg47
Nsg48
I00
sbsbs.