(dp0
S'OriginalConfig'
p1
ccopy_reg
_reconstructor
p2
(cWMCore.Configuration
Configuration
p3
c__builtin__
object
p4
Ntp5
Rp6
(dp7
S'Site'
p8
g2
(cWMCore.Configuration
ConfigSection
p9
g4
Ntp10
Rp11
(dp12
S'_internal_skipChecks'
p13
I00
sS'_internal_documentation'
p14
S''
p15
sS'_internal_settings'
p16
c__builtin__
set
p17
((lp18
S'blacklist'
p19
aS'ignoreGlobalBlacklist'
p20
aS'storageSite'
p21
atp22
Rp23
sS'_internal_name'
p24
g8
sS'_internal_docstrings'
p25
(dp26
sg19
(lp27
S'T2_BR_SPRACE'
p28
asS'_internal_children'
p29
g17
((lp30
tp31
Rp32
sg21
S'T2_AT_Vienna'
p33
sg20
I01
sS'_internal_parent_ref'
p34
NsbsS'_internal_sections'
p35
(lp36
S'General'
p37
aS'JobType'
p38
aS'Data'
p39
ag8
aS'User'
p40
aS'Debug'
p41
asg40
g2
(g9
g4
Ntp42
Rp43
(dp44
g13
I00
sg14
g15
sg16
g17
((lp45
tp46
Rp47
sg24
g40
sg25
(dp48
sg29
g17
((lp49
tp50
Rp51
sg34
Nsbsg41
g2
(g9
g4
Ntp52
Rp53
(dp54
g13
I00
sg14
g15
sg16
g17
((lp55
tp56
Rp57
sg24
g41
sg25
(dp58
sg29
g17
((lp59
tp60
Rp61
sg34
Nsbsg37
g2
(g9
g4
Ntp62
Rp63
(dp64
g13
I00
sg14
g15
sg16
g17
((lp65
S'transferOutputs'
p66
aS'workArea'
p67
aS'requestName'
p68
atp69
Rp70
sg24
g37
sg25
(dp71
sg66
I01
sg29
g17
((lp72
tp73
Rp74
sg68
S'Run2018B-15Feb2022_recoveryTask_pv6'
p75
sg34
Nsg67
S'crab_projects'
p76
sbsg39
g2
(g9
g4
Ntp77
Rp78
(dp79
S'inputDataset'
p80
S'/MET/Run2018B-15Feb2022_UL2018-v1/AOD'
p81
sS'outputDatasetTag'
p82
S'Run2018B-15Feb2022'
p83
sg13
I00
sS'splitting'
p84
S'Automatic'
p85
sg14
g15
sg16
g17
((lp86
g80
ag82
aS'publication'
p87
aS'partialDataset'
p88
aS'inputDBS'
p89
ag84
aS'lumiMask'
p90
atp91
Rp92
sg88
I01
sg24
g39
sg89
S'global'
p93
sg25
(dp94
sg29
g17
((lp95
tp96
Rp97
sg34
Nsg90
S'/users/alikaan.gueven/COPY/CMSSW_10_6_28/src/SoftDisplacedVertices/CustomMiniAOD/testK/crab_projects/crab_20240226_135242/results/notFinishedLumis.json'
p98
sg87
I01
sbsg38
g2
(g9
g4
Ntp99
Rp100
(dp101
S'numCores'
p102
I4
sg13
I00
sg14
g15
sg16
g17
((lp103
S'psetName'
p104
aS'pluginName'
p105
ag102
aS'maxMemoryMB'
p106
atp107
Rp108
sg24
g38
sg25
(dp109
sg105
S'Analysis'
p110
sg29
g17
((lp111
tp112
Rp113
sg104
S'/users/alikaan.gueven/COPY/CMSSW_10_6_28/src/SoftDisplacedVertices/CustomMiniAOD/configuration/Data_UL18_CustomMiniAOD.py'
p114
sg34
Nsg106
I8000
sbsbsS'voGroup'
p115
g15
sS'Server'
p116
S'cmsweb.cern.ch'
p117
sS'instance'
p118
S'prod'
p119
sS'RequestName'
p120
V240229_214221:aguven_crab_Run2018B-15Feb2022_recoveryTask_pv6
p121
sS'voRole'
p122
S'NULL'
p123
sS'Port'
p124
g15
s.