(dp0
S'OriginalConfig'
p1
ccopy_reg
_reconstructor
p2
(cWMCore.Configuration
Configuration
p3
c__builtin__
object
p4
Ntp5
Rp6
(dp7
S'Site'
p8
g2
(cWMCore.Configuration
ConfigSection
p9
g4
Ntp10
Rp11
(dp12
S'_internal_skipChecks'
p13
I00
sS'_internal_documentation'
p14
S''
p15
sS'_internal_settings'
p16
c__builtin__
set
p17
((lp18
S'whitelist'
p19
aS'storageSite'
p20
atp21
Rp22
sS'_internal_name'
p23
g8
sS'_internal_docstrings'
p24
(dp25
sS'_internal_children'
p26
g17
((lp27
tp28
Rp29
sg20
S'T2_AT_Vienna'
p30
sS'_internal_parent_ref'
p31
Nsg19
(lp32
g30
asbsS'_internal_sections'
p33
(lp34
S'General'
p35
aS'JobType'
p36
aS'Data'
p37
ag8
aS'User'
p38
aS'Debug'
p39
asg38
g2
(g9
g4
Ntp40
Rp41
(dp42
g13
I00
sg14
g15
sg16
g17
((lp43
tp44
Rp45
sg23
g38
sg24
(dp46
sg26
g17
((lp47
tp48
Rp49
sg31
Nsbsg39
g2
(g9
g4
Ntp50
Rp51
(dp52
g13
I00
sg14
g15
sg16
g17
((lp53
tp54
Rp55
sg23
g39
sg24
(dp56
sg26
g17
((lp57
tp58
Rp59
sg31
Nsbsg35
g2
(g9
g4
Ntp60
Rp61
(dp62
g13
I00
sg14
g15
sg16
g17
((lp63
S'transferOutputs'
p64
aS'workArea'
p65
aS'requestName'
p66
atp67
Rp68
sg23
g35
sg24
(dp69
sg64
I01
sg26
g17
((lp70
tp71
Rp72
sg66
S'Run2018D-15Feb2022_recoveryTask_pv5'
p73
sg31
Nsg65
S'crab_projects'
p74
sbsg37
g2
(g9
g4
Ntp75
Rp76
(dp77
S'inputDataset'
p78
S'/MET/Run2018D-15Feb2022_UL2018-v1/AOD'
p79
sS'outputDatasetTag'
p80
S'Run2018D-15Feb2022_pv5'
p81
sg13
I00
sS'splitting'
p82
S'Automatic'
p83
sg14
g15
sg16
g17
((lp84
g78
ag80
aS'publication'
p85
aS'partialDataset'
p86
aS'inputDBS'
p87
ag82
aS'lumiMask'
p88
atp89
Rp90
sg86
I01
sg23
g37
sg87
S'global'
p91
sg24
(dp92
sg26
g17
((lp93
tp94
Rp95
sg31
Nsg88
S'/users/alikaan.gueven/COPY/CMSSW_10_6_28/src/SoftDisplacedVertices/CustomMiniAOD/testK/crab_projects/crab_20240222_191722/results/notPublishedLumis.json'
p96
sg85
I01
sbsg36
g2
(g9
g4
Ntp97
Rp98
(dp99
S'numCores'
p100
I4
sg13
I00
sg14
g15
sg16
g17
((lp101
S'psetName'
p102
aS'pluginName'
p103
ag100
aS'maxMemoryMB'
p104
atp105
Rp106
sg23
g36
sg24
(dp107
sg103
S'Analysis'
p108
sg26
g17
((lp109
tp110
Rp111
sg102
S'/users/alikaan.gueven/COPY/CMSSW_10_6_28/src/SoftDisplacedVertices/CustomMiniAOD/configuration/Data_UL18_CustomMiniAOD.py'
p112
sg31
Nsg104
I8000
sbsbsS'voGroup'
p113
g15
sS'Server'
p114
S'cmsweb.cern.ch'
p115
sS'instance'
p116
S'prod'
p117
sS'RequestName'
p118
V240304_204123:aguven_crab_Run2018D-15Feb2022_recoveryTask_pv5
p119
sS'voRole'
p120
S'NULL'
p121
sS'Port'
p122
g15
s.