(dp0
S'OriginalConfig'
p1
ccopy_reg
_reconstructor
p2
(cWMCore.Configuration
Configuration
p3
c__builtin__
object
p4
Ntp5
Rp6
(dp7
S'Site'
p8
g2
(cWMCore.Configuration
ConfigSection
p9
g4
Ntp10
Rp11
(dp12
S'_internal_skipChecks'
p13
I00
sS'_internal_documentation'
p14
S''
p15
sS'_internal_settings'
p16
c__builtin__
set
p17
((lp18
S'storageSite'
p19
atp20
Rp21
sS'_internal_name'
p22
g8
sS'_internal_docstrings'
p23
(dp24
sS'_internal_children'
p25
g17
((lp26
tp27
Rp28
sg19
S'T2_AT_Vienna'
p29
sS'_internal_parent_ref'
p30
NsbsS'_internal_sections'
p31
(lp32
S'General'
p33
aS'JobType'
p34
aS'Data'
p35
ag8
aS'User'
p36
aS'Debug'
p37
asg36
g2
(g9
g4
Ntp38
Rp39
(dp40
g13
I00
sg14
g15
sg16
g17
((lp41
tp42
Rp43
sg22
g36
sg23
(dp44
sg25
g17
((lp45
tp46
Rp47
sg30
Nsbsg37
g2
(g9
g4
Ntp48
Rp49
(dp50
g13
I00
sg14
g15
sg16
g17
((lp51
tp52
Rp53
sg22
g37
sg23
(dp54
sg25
g17
((lp55
tp56
Rp57
sg30
Nsbsg33
g2
(g9
g4
Ntp58
Rp59
(dp60
g13
I00
sg14
g15
sg16
g17
((lp61
S'transferOutputs'
p62
aS'workArea'
p63
atp64
Rp65
sg22
g33
sg23
(dp66
sg62
I01
sg25
g17
((lp67
tp68
Rp69
sg30
Nsg63
S'crab_projects'
p70
sbsg35
g2
(g9
g4
Ntp71
Rp72
(dp73
S'inputDataset'
p74
S'/WJetsToLNu_HT-70To100_TuneCP5_13TeV-madgraphMLM-pythia8/RunIISummer20UL18RECO-106X_upgrade2018_realistic_v11_L1v1-v1/AODSIM'
p75
sS'outputDatasetTag'
p76
S'WJetsToLNu_HT-70To100'
p77
sg13
I00
sS'splitting'
p78
S'Automatic'
p79
sg14
g15
sg16
g17
((lp80
g74
ag76
aS'publication'
p81
aS'inputDBS'
p82
ag78
atp83
Rp84
sg22
g35
sg82
S'global'
p85
sg23
(dp86
sg25
g17
((lp87
tp88
Rp89
sg30
Nsg81
I01
sbsg34
g2
(g9
g4
Ntp90
Rp91
(dp92
g13
I00
sg14
g15
sg16
g17
((lp93
S'psetName'
p94
aS'pluginName'
p95
aS'maxMemoryMB'
p96
atp97
Rp98
sg22
g34
sg23
(dp99
sg95
S'Analysis'
p100
sg25
g17
((lp101
tp102
Rp103
sg94
S'/users/alikaan.gueven/COPY/CMSSW_10_6_28/src/SoftDisplacedVertices/CustomMiniAOD/configuration/MC_UL18_CustomMiniAOD.py'
p104
sg30
Nsg96
I3000
sbsbsS'voGroup'
p105
g15
sS'Server'
p106
S'cmsweb.cern.ch'
p107
sS'instance'
p108
S'prod'
p109
sS'RequestName'
p110
V240222_183241:aguven_crab_20240222_193223
p111
sS'voRole'
p112
S'NULL'
p113
sS'Port'
p114
g15
s.