(dp0
S'OriginalConfig'
p1
ccopy_reg
_reconstructor
p2
(cWMCore.Configuration
Configuration
p3
c__builtin__
object
p4
Ntp5
Rp6
(dp7
S'Site'
p8
g2
(cWMCore.Configuration
ConfigSection
p9
g4
Ntp10
Rp11
(dp12
S'_internal_skipChecks'
p13
I00
sS'_internal_documentation'
p14
S''
p15
sS'_internal_settings'
p16
c__builtin__
set
p17
((lp18
S'blacklist'
p19
aS'ignoreGlobalBlacklist'
p20
aS'storageSite'
p21
atp22
Rp23
sS'_internal_name'
p24
g8
sS'_internal_docstrings'
p25
(dp26
sg19
(lp27
S'T2_BR_SPRACE'
p28
aS'T2_IN_TIFR'
p29
asS'_internal_children'
p30
g17
((lp31
tp32
Rp33
sg21
S'T2_AT_Vienna'
p34
sg20
I01
sS'_internal_parent_ref'
p35
NsbsS'_internal_sections'
p36
(lp37
S'General'
p38
aS'JobType'
p39
aS'Data'
p40
ag8
aS'User'
p41
aS'Debug'
p42
asg41
g2
(g9
g4
Ntp43
Rp44
(dp45
g13
I00
sg14
g15
sg16
g17
((lp46
tp47
Rp48
sg24
g41
sg25
(dp49
sg30
g17
((lp50
tp51
Rp52
sg35
Nsbsg42
g2
(g9
g4
Ntp53
Rp54
(dp55
g13
I00
sg14
g15
sg16
g17
((lp56
tp57
Rp58
sg24
g42
sg25
(dp59
sg30
g17
((lp60
tp61
Rp62
sg35
Nsbsg38
g2
(g9
g4
Ntp63
Rp64
(dp65
g13
I00
sg14
g15
sg16
g17
((lp66
S'transferOutputs'
p67
aS'workArea'
p68
aS'requestName'
p69
atp70
Rp71
sg24
g38
sg25
(dp72
sg67
I01
sg30
g17
((lp73
tp74
Rp75
sg69
S'Run2018B-15Feb2022_recoveryTask_pv3'
p76
sg35
Nsg68
S'crab_projects'
p77
sbsg40
g2
(g9
g4
Ntp78
Rp79
(dp80
S'inputDataset'
p81
S'/MET/Run2018B-15Feb2022_UL2018-v1/AOD'
p82
sS'outputDatasetTag'
p83
S'Run2018B-15Feb2022_pv3'
p84
sg13
I00
sS'splitting'
p85
S'Automatic'
p86
sg14
g15
sg16
g17
((lp87
g81
ag83
aS'publication'
p88
ag85
aS'inputDBS'
p89
aS'lumiMask'
p90
atp91
Rp92
sg24
g40
sg89
S'global'
p93
sg25
(dp94
sg30
g17
((lp95
tp96
Rp97
sg35
Nsg90
S'/users/alikaan.gueven/COPY/CMSSW_10_6_28/src/SoftDisplacedVertices/CustomMiniAOD/testK/crab_projects/crab_20240226_135242/results/notFinishedLumis.json'
p98
sg88
I01
sbsg39
g2
(g9
g4
Ntp99
Rp100
(dp101
S'numCores'
p102
I4
sg13
I00
sg14
g15
sg16
g17
((lp103
S'psetName'
p104
aS'pluginName'
p105
ag102
aS'maxMemoryMB'
p106
atp107
Rp108
sg24
g39
sg25
(dp109
sg105
S'Analysis'
p110
sg30
g17
((lp111
tp112
Rp113
sg104
S'/users/alikaan.gueven/COPY/CMSSW_10_6_28/src/SoftDisplacedVertices/CustomMiniAOD/configuration/Data_UL18_CustomMiniAOD.py'
p114
sg35
Nsg106
I8000
sbsbsS'voGroup'
p115
g15
sS'Server'
p116
S'cmsweb.cern.ch'
p117
sS'instance'
p118
S'prod'
p119
sS'RequestName'
p120
V240229_211112:aguven_crab_Run2018B-15Feb2022_recoveryTask_pv3
p121
sS'voRole'
p122
S'NULL'
p123
sS'Port'
p124
g15
s.