(dp0
S'OriginalConfig'
p1
ccopy_reg
_reconstructor
p2
(cWMCore.Configuration
Configuration
p3
c__builtin__
object
p4
Ntp5
Rp6
(dp7
S'Site'
p8
g2
(cWMCore.Configuration
ConfigSection
p9
g4
Ntp10
Rp11
(dp12
S'_internal_skipChecks'
p13
I00
sS'_internal_documentation'
p14
S''
p15
sS'_internal_settings'
p16
c__builtin__
set
p17
((lp18
S'blacklist'
p19
aS'ignoreGlobalBlacklist'
p20
aS'whitelist'
p21
aS'storageSite'
p22
atp23
Rp24
sS'_internal_name'
p25
g8
sS'_internal_docstrings'
p26
(dp27
sg19
(lp28
S'T2_BR_SPRACE'
p29
asS'_internal_children'
p30
g17
((lp31
tp32
Rp33
sg22
S'T2_AT_Vienna'
p34
sg20
I01
sS'_internal_parent_ref'
p35
Nsg21
(lp36
S'T1_RU*'
p37
aS'T1_US*'
p38
asbsS'_internal_sections'
p39
(lp40
S'General'
p41
aS'JobType'
p42
aS'Data'
p43
ag8
aS'User'
p44
aS'Debug'
p45
asg44
g2
(g9
g4
Ntp46
Rp47
(dp48
g13
I00
sg14
g15
sg16
g17
((lp49
tp50
Rp51
sg25
g44
sg26
(dp52
sg30
g17
((lp53
tp54
Rp55
sg35
Nsbsg45
g2
(g9
g4
Ntp56
Rp57
(dp58
g13
I00
sg14
g15
sg16
g17
((lp59
tp60
Rp61
sg25
g45
sg26
(dp62
sg30
g17
((lp63
tp64
Rp65
sg35
Nsbsg41
g2
(g9
g4
Ntp66
Rp67
(dp68
g13
I00
sg14
g15
sg16
g17
((lp69
S'transferOutputs'
p70
aS'workArea'
p71
atp72
Rp73
sg25
g41
sg26
(dp74
sg70
I01
sg30
g17
((lp75
tp76
Rp77
sg35
Nsg71
S'crab_projects'
p78
sbsg43
g2
(g9
g4
Ntp79
Rp80
(dp81
S'inputDataset'
p82
S'/ZJetsToNuNu_HT-800To1200_TuneCP5_13TeV-madgraphMLM-pythia8/RunIISummer20UL18RECO-106X_upgrade2018_realistic_v11_L1v1-v1/AODSIM'
p83
sS'ignoreLocality'
p84
I01
sS'outputDatasetTag'
p85
S'ZJetToNuNu_HT-800To1200'
p86
sg13
I00
sS'splitting'
p87
S'Automatic'
p88
sg14
g15
sg16
g17
((lp89
g82
ag84
ag85
aS'publication'
p90
aS'partialDataset'
p91
aS'inputDBS'
p92
ag87
atp93
Rp94
sg91
I01
sg25
g43
sg92
S'global'
p95
sg26
(dp96
sg30
g17
((lp97
tp98
Rp99
sg35
Nsg90
I01
sbsg42
g2
(g9
g4
Ntp100
Rp101
(dp102
S'numCores'
p103
I4
sg13
I00
sg14
g15
sg16
g17
((lp104
S'psetName'
p105
aS'pluginName'
p106
ag103
aS'maxMemoryMB'
p107
atp108
Rp109
sg25
g42
sg26
(dp110
sg106
S'Analysis'
p111
sg30
g17
((lp112
tp113
Rp114
sg105
S'/users/alikaan.gueven/COPY/CMSSW_10_6_28/src/SoftDisplacedVertices/CustomMiniAOD/configuration/MC_UL18_CustomMiniAOD.py'
p115
sg35
Nsg107
I8000
sbsbsS'voGroup'
p116
g15
sS'Server'
p117
S'cmsweb.cern.ch'
p118
sS'instance'
p119
S'prod'
p120
sS'RequestName'
p121
V240225_145115:aguven_crab_20240225_155055
p122
sS'voRole'
p123
S'NULL'
p124
sS'Port'
p125
g15
s.