(dp0
VServer
p1
Vcmsweb.cern.ch
p2
sVPort
p3
V
p4
sVRequestName
p5
V240304_101641:aguven_crab_20240304_111636
p6
sVvoRole
p7
VNULL
p8
sVvoGroup
p9
g4
sVinstance
p10
Vprod
p11
sVOriginalConfig
p12
ccopy_reg
_reconstructor
p13
(cWMCore.Configuration
Configuration
p14
c__builtin__
object
p15
Ntp16
Rp17
(dp18
V_internal_sections
p19
(lp20
VGeneral
p21
aVJobType
p22
aVData
p23
aVSite
p24
aVUser
p25
aVDebug
p26
asg21
g13
(cWMCore.Configuration
ConfigSection
p27
g15
Ntp28
Rp29
(dp30
V_internal_documentation
p31
g4
sV_internal_name
p32
g21
sV_internal_settings
p33
c__builtin__
set
p34
((lp35
g10
aVworkArea
p36
aVtransferOutputs
p37
aVrequestName
p38
atp39
Rp40
sV_internal_docstrings
p41
(dp42
sV_internal_children
p43
g34
((lp44
tp45
Rp46
sV_internal_parent_ref
p47
NsV_internal_skipChecks
p48
I00
sg37
I01
sg36
V.
p49
sg38
VNone
p50
sg10
Vprod
p51
sbsg22
g13
(g27
g15
Ntp52
Rp53
(dp54
g31
g4
sg32
g22
sg33
g34
((lp55
VpluginName
p56
aVcopyCatWorkdir
p57
aVpsetName
p58
aVcopyCatTaskname
p59
aVcopyCatInstance
p60
aVmaxMemoryMB
p61
atp62
Rp63
sg41
(dp64
sg43
g34
((lp65
tp66
Rp67
sg47
Nsg48
I00
sg58
V/users/alikaan.gueven/COPY/CMSSW_10_6_28/src/SoftDisplacedVertices/CustomMiniAOD/testK/crab_projects/crab_20240222_191722/debug_sandbox/debug/originalPSet.py
p68
sg56
VRecover
p69
sg61
L3000L
sg59
V240222_181739:aguven_crab_20240222_191722
p70
sg57
V/users/alikaan.gueven/COPY/CMSSW_10_6_28/src/SoftDisplacedVertices/CustomMiniAOD/testK/crab_projects/crab_20240222_191722
p71
sg60
g51
sbsg23
g13
(g27
g15
Ntp72
Rp73
(dp74
g31
g4
sg32
g23
sg33
g34
((lp75
Vpublication
p76
aVoutputDatasetTag
p77
aVinputDBS
p78
aVsplitting
p79
aVlumiMask
p80
aVinputDataset
p81
atp82
Rp83
sg41
(dp84
sg43
g34
((lp85
tp86
Rp87
sg47
Nsg48
I00
sg81
V/MET/Run2018D-15Feb2022_UL2018-v1/AOD
p88
sg77
VRun2018D-15Feb2022_UL2018-v1
p89
sg76
I01
sg78
Vglobal
p90
sg79
VAutomatic
p91
sg80
V/users/alikaan.gueven/COPY/CMSSW_10_6_28/src/SoftDisplacedVertices/CustomMiniAOD/testK/crab_projects/crab_20240222_191722/results/notPublishedLumis.json
p92
sbsg24
g13
(g27
g15
Ntp93
Rp94
(dp95
g31
g4
sg32
g24
sg33
g34
((lp96
VstorageSite
p97
atp98
Rp99
sg41
(dp100
sg43
g34
((lp101
tp102
Rp103
sg47
Nsg48
I00
sg97
VT2_AT_Vienna
p104
sbsg25
g13
(g27
g15
Ntp105
Rp106
(dp107
g31
g4
sg32
g25
sg33
g34
((lp108
tp109
Rp110
sg41
(dp111
sg43
g34
((lp112
tp113
Rp114
sg47
Nsg48
I00
sbsg26
g13
(g27
g15
Ntp115
Rp116
(dp117
g31
g4
sg32
g26
sg33
g34
((lp118
tp119
Rp120
sg41
(dp121
sg43
g34
((lp122
tp123
Rp124
sg47
Nsg48
I00
sbsbs.