(dp0
S'OriginalConfig'
p1
ccopy_reg
_reconstructor
p2
(cWMCore.Configuration
Configuration
p3
c__builtin__
object
p4
Ntp5
Rp6
(dp7
S'Site'
p8
g2
(cWMCore.Configuration
ConfigSection
p9
g4
Ntp10
Rp11
(dp12
S'_internal_skipChecks'
p13
I00
sS'_internal_documentation'
p14
S''
p15
sS'_internal_settings'
p16
c__builtin__
set
p17
((lp18
S'blacklist'
p19
aS'whitelist'
p20
aS'storageSite'
p21
atp22
Rp23
sS'_internal_name'
p24
g8
sS'_internal_docstrings'
p25
(dp26
sg19
(lp27
S'T2_BR_SPRACE'
p28
asS'_internal_children'
p29
g17
((lp30
tp31
Rp32
sg21
S'T2_AT_Vienna'
p33
sS'_internal_parent_ref'
p34
Nsg20
(lp35
S'T1_RU_JINR'
p36
aS'T1_US_FNAL'
p37
asbsS'_internal_sections'
p38
(lp39
S'General'
p40
aS'JobType'
p41
aS'Data'
p42
ag8
aS'User'
p43
aS'Debug'
p44
asg43
g2
(g9
g4
Ntp45
Rp46
(dp47
g13
I00
sg14
g15
sg16
g17
((lp48
tp49
Rp50
sg24
g43
sg25
(dp51
sg29
g17
((lp52
tp53
Rp54
sg34
Nsbsg44
g2
(g9
g4
Ntp55
Rp56
(dp57
g13
I00
sg14
g15
sg16
g17
((lp58
tp59
Rp60
sg24
g44
sg25
(dp61
sg29
g17
((lp62
tp63
Rp64
sg34
Nsbsg40
g2
(g9
g4
Ntp65
Rp66
(dp67
g13
I00
sg14
g15
sg16
g17
((lp68
S'transferOutputs'
p69
aS'workArea'
p70
atp71
Rp72
sg24
g40
sg25
(dp73
sg69
I01
sg29
g17
((lp74
tp75
Rp76
sg34
Nsg70
S'crab_projects'
p77
sbsg42
g2
(g9
g4
Ntp78
Rp79
(dp80
S'inputDataset'
p81
S'/ZJetsToNuNu_HT-800To1200_TuneCP5_13TeV-madgraphMLM-pythia8/RunIISummer20UL18RECO-106X_upgrade2018_realistic_v11_L1v1-v1/AODSIM'
p82
sS'outputDatasetTag'
p83
S'ZJetToNuNu_HT-800To1200'
p84
sg13
I00
sS'splitting'
p85
S'Automatic'
p86
sg14
g15
sg16
g17
((lp87
g81
ag83
aS'publication'
p88
aS'partialDataset'
p89
aS'inputDBS'
p90
ag85
atp91
Rp92
sg89
I01
sg24
g42
sg90
S'global'
p93
sg25
(dp94
sg29
g17
((lp95
tp96
Rp97
sg34
Nsg88
I01
sbsg41
g2
(g9
g4
Ntp98
Rp99
(dp100
S'numCores'
p101
I4
sg13
I00
sg14
g15
sg16
g17
((lp102
S'psetName'
p103
aS'pluginName'
p104
ag101
aS'maxMemoryMB'
p105
atp106
Rp107
sg24
g41
sg25
(dp108
sg104
S'Analysis'
p109
sg29
g17
((lp110
tp111
Rp112
sg103
S'/users/alikaan.gueven/COPY/CMSSW_10_6_28/src/SoftDisplacedVertices/CustomMiniAOD/configuration/MC_UL18_CustomMiniAOD.py'
p113
sg34
Nsg105
I8000
sbsbsS'voGroup'
p114
g15
sS'Server'
p115
S'cmsweb.cern.ch'
p116
sS'instance'
p117
S'prod'
p118
sS'RequestName'
p119
V240225_143547:aguven_crab_20240225_153530
p120
sS'voRole'
p121
S'NULL'
p122
sS'Port'
p123
g15
s.