(dp0
S'OriginalConfig'
p1
ccopy_reg
_reconstructor
p2
(cWMCore.Configuration
Configuration
p3
c__builtin__
object
p4
Ntp5
Rp6
(dp7
S'Site'
p8
g2
(cWMCore.Configuration
ConfigSection
p9
g4
Ntp10
Rp11
(dp12
S'_internal_skipChecks'
p13
I00
sS'_internal_documentation'
p14
S''
p15
sS'_internal_settings'
p16
c__builtin__
set
p17
((lp18
S'blacklist'
p19
aS'ignoreGlobalBlacklist'
p20
aS'storageSite'
p21
atp22
Rp23
sS'_internal_name'
p24
g8
sS'_internal_docstrings'
p25
(dp26
sg19
(lp27
S'T2_BR_SPRACE'
p28
asS'_internal_children'
p29
g17
((lp30
tp31
Rp32
sg21
S'T2_AT_Vienna'
p33
sg20
I01
sS'_internal_parent_ref'
p34
NsbsS'_internal_sections'
p35
(lp36
S'General'
p37
aS'JobType'
p38
aS'Data'
p39
ag8
aS'User'
p40
aS'Debug'
p41
asg40
g2
(g9
g4
Ntp42
Rp43
(dp44
g13
I00
sg14
g15
sg16
g17
((lp45
tp46
Rp47
sg24
g40
sg25
(dp48
sg29
g17
((lp49
tp50
Rp51
sg34
Nsbsg41
g2
(g9
g4
Ntp52
Rp53
(dp54
g13
I00
sg14
g15
sg16
g17
((lp55
tp56
Rp57
sg24
g41
sg25
(dp58
sg29
g17
((lp59
tp60
Rp61
sg34
Nsbsg37
g2
(g9
g4
Ntp62
Rp63
(dp64
g13
I00
sg14
g15
sg16
g17
((lp65
S'transferOutputs'
p66
aS'workArea'
p67
aS'requestName'
p68
atp69
Rp70
sg24
g37
sg25
(dp71
sg66
I01
sg29
g17
((lp72
tp73
Rp74
sg68
S'Run2018B-15Feb2022_recoveryTask_pv10'
p75
sg34
Nsg67
S'crab_projects'
p76
sbsg39
g2
(g9
g4
Ntp77
Rp78
(dp79
S'outputDatasetTag'
p80
S'Run2018B-15Feb2022_pv10'
p81
sg13
I00
sS'splitting'
p82
S'FileBased'
p83
sS'unitsPerJob'
p84
I5
sg14
g15
sg16
g17
((lp85
g80
aS'publication'
p86
ag84
aS'userInputFiles'
p87
aS'partialDataset'
p88
aS'inputDBS'
p89
ag82
aS'outputPrimaryDataset'
p90
aS'totalUnits'
p91
atp92
Rp93
sg88
I01
sg24
g39
sg89
S'global'
p94
sg25
(dp95
sg29
g17
((lp96
tp97
Rp98
sg86
I01
sg90
S'Run2018B-15Feb2022_UL2018-v1'
p99
sg34
Nsg87
(lp100
S'/store/data/Run2018B/MET/AOD/15Feb2022_UL2018-v1/2530000/581431BA-5E51-8142-B066-2342BC997A3C.root\n'
p101
aS'/store/data/Run2018B/MET/AOD/15Feb2022_UL2018-v1/2530000/1DD0C174-0CDC-9B4E-B274-0CDE5CE26EBF.root\n'
p102
aS'/store/data/Run2018B/MET/AOD/15Feb2022_UL2018-v1/2530000/C50F29CF-1F5C-5546-BE82-3E59318F1B66.root\n'
p103
aS'/store/data/Run2018B/MET/AOD/15Feb2022_UL2018-v1/2530000/41220A19-AFDA-2148-BE19-9532906D901B.root\n'
p104
aS'/store/data/Run2018B/MET/AOD/15Feb2022_UL2018-v1/2530000/C4CE51D8-2E9D-B14B-A3D0-10DBE295495B.root\n'
p105
aS'/store/data/Run2018B/MET/AOD/15Feb2022_UL2018-v1/2530000/559C4417-A166-D340-B0C0-9A1A22F7FBE4.root\n'
p106
aS'/store/data/Run2018B/MET/AOD/15Feb2022_UL2018-v1/2530000/E48AD27E-FB6E-F244-8A57-60E6503647E4.root\n'
p107
aS'/store/data/Run2018B/MET/AOD/15Feb2022_UL2018-v1/2530000/26551973-38DF-9246-BB5D-8976D7E6AEED.root\n'
p108
aS'/store/data/Run2018B/MET/AOD/15Feb2022_UL2018-v1/25210000/73C3309D-1491-EB45-A358-280AB434F5D6.root\n'
p109
aS'/store/data/Run2018B/MET/AOD/15Feb2022_UL2018-v1/2530000/01D8CEFB-EEF8-5747-9BE0-FA0AC2FB2350.root\n'
p110
aS'/store/data/Run2018B/MET/AOD/15Feb2022_UL2018-v1/2530000/B3003D7C-0CC4-874E-9575-394F7BC12B0D.root\n'
p111
aS'/store/data/Run2018B/MET/AOD/15Feb2022_UL2018-v1/2530000/6F3712B8-95FD-5B45-8A86-C794C6D18A39.root\n'
p112
aS'/store/data/Run2018B/MET/AOD/15Feb2022_UL2018-v1/2530000/E8677047-DDA2-6A49-82D4-4944BE20134C.root\n'
p113
aS'/store/data/Run2018B/MET/AOD/15Feb2022_UL2018-v1/2530000/F96CFA79-F0F5-E545-AE2D-E36CC438549C.root\n'
p114
aS'/store/data/Run2018B/MET/AOD/15Feb2022_UL2018-v1/2530000/C258C897-AF1F-384B-8450-93DDE0129DA7.root\n'
p115
aS'/store/data/Run2018B/MET/AOD/15Feb2022_UL2018-v1/2530000/F3E8F626-4C28-7B42-9C8C-7A0C0FA70A8D.root\n'
p116
aS'/store/data/Run2018B/MET/AOD/15Feb2022_UL2018-v1/2530000/4A7753E6-E07C-1843-8F22-8F3FBE9B3874.root\n'
p117
aS'/store/data/Run2018B/MET/AOD/15Feb2022_UL2018-v1/2530000/27E1DBCD-C788-9642-A903-DCC09BC60B80.root\n'
p118
aS'/store/data/Run2018B/MET/AOD/15Feb2022_UL2018-v1/2530000/62176AD1-6BA5-924D-ACBB-18C0CD77B417.root\n'
p119
aS'/store/data/Run2018B/MET/AOD/15Feb2022_UL2018-v1/2530000/53A4064A-5F8F-754A-8249-8F7398AD20F5.root\n'
p120
aS'/store/data/Run2018B/MET/AOD/15Feb2022_UL2018-v1/2530000/592D7D6C-2F3C-7241-B2AA-8B8D594C807C.root\n'
p121
aS'/store/data/Run2018B/MET/AOD/15Feb2022_UL2018-v1/2530000/E6187BFE-85FB-D140-9A0F-7D5C2E4B12D3.root\n'
p122
aS'/store/data/Run2018B/MET/AOD/15Feb2022_UL2018-v1/2530000/655B97A1-25DC-EE47-BEA7-D4A73B2C039D.root\n'
p123
aS'/store/data/Run2018B/MET/AOD/15Feb2022_UL2018-v1/2530000/9F1D85CD-785F-2B41-AB11-87220695AB94.root\n'
p124
aS'/store/data/Run2018B/MET/AOD/15Feb2022_UL2018-v1/2530000/46720932-2D62-9148-902B-11D4CBA6A916.root\n'
p125
aS'/store/data/Run2018B/MET/AOD/15Feb2022_UL2018-v1/2530000/6EF3BD05-69F9-984E-9BCF-3A3368CD3007.root\n'
p126
aS'/store/data/Run2018B/MET/AOD/15Feb2022_UL2018-v1/2530000/412D2902-B5D2-524E-9435-E5978748EF8C.root\n'
p127
aS'/store/data/Run2018B/MET/AOD/15Feb2022_UL2018-v1/2530000/AABF86C8-0293-AD4B-9EFD-F4B2E039A110.root\n'
p128
aS'/store/data/Run2018B/MET/AOD/15Feb2022_UL2018-v1/2530000/132447EA-2F10-8C43-A804-6DE9242EDECF.root\n'
p129
aS'/store/data/Run2018B/MET/AOD/15Feb2022_UL2018-v1/2530000/CD54863F-643C-6E43-86D1-C2EA7E816CEE.root\n'
p130
aS'/store/data/Run2018B/MET/AOD/15Feb2022_UL2018-v1/2530000/B730289F-05AC-E74C-92F3-9554F5F7524F.root\n'
p131
aS'/store/data/Run2018B/MET/AOD/15Feb2022_UL2018-v1/2530000/7702BD5F-2B26-7149-9849-08CF9ED09A75.root\n'
p132
aS'/store/data/Run2018B/MET/AOD/15Feb2022_UL2018-v1/2530000/7A1FB752-F8E9-E644-AC08-F39BC0DE64D1.root\n'
p133
asg91
I33
sbsg38
g2
(g9
g4
Ntp134
Rp135
(dp136
S'numCores'
p137
I4
sg13
I00
sg14
g15
sg16
g17
((lp138
S'psetName'
p139
aS'pluginName'
p140
ag137
aS'maxMemoryMB'
p141
atp142
Rp143
sg24
g38
sg25
(dp144
sg140
S'Analysis'
p145
sg29
g17
((lp146
tp147
Rp148
sg139
S'/users/alikaan.gueven/COPY/CMSSW_10_6_28/src/SoftDisplacedVertices/CustomMiniAOD/configuration/Data_UL18_CustomMiniAOD.py'
p149
sg34
Nsg141
I8000
sbsbsS'voGroup'
p150
g15
sS'Server'
p151
S'cmsweb.cern.ch'
p152
sS'instance'
p153
S'prod'
p154
sS'RequestName'
p155
V240229_220619:aguven_crab_Run2018B-15Feb2022_recoveryTask_pv10
p156
sS'voRole'
p157
S'NULL'
p158
sS'Port'
p159
g15
s.