(dp0
S'OriginalConfig'
p1
ccopy_reg
_reconstructor
p2
(cWMCore.Configuration
Configuration
p3
c__builtin__
object
p4
Ntp5
Rp6
(dp7
S'Site'
p8
g2
(cWMCore.Configuration
ConfigSection
p9
g4
Ntp10
Rp11
(dp12
S'_internal_skipChecks'
p13
I00
sS'_internal_documentation'
p14
S''
p15
sS'_internal_settings'
p16
c__builtin__
set
p17
((lp18
S'blacklist'
p19
aS'storageSite'
p20
atp21
Rp22
sS'_internal_name'
p23
g8
sS'_internal_docstrings'
p24
(dp25
sg19
(lp26
S'T2_BR_SPRACE'
p27
aS'T2_IT_Pisa'
p28
asS'_internal_children'
p29
g17
((lp30
tp31
Rp32
sg20
S'T2_AT_Vienna'
p33
sS'_internal_parent_ref'
p34
NsbsS'_internal_sections'
p35
(lp36
S'General'
p37
aS'JobType'
p38
aS'Data'
p39
ag8
aS'User'
p40
aS'Debug'
p41
asg40
g2
(g9
g4
Ntp42
Rp43
(dp44
g13
I00
sg14
g15
sg16
g17
((lp45
tp46
Rp47
sg23
g40
sg24
(dp48
sg29
g17
((lp49
tp50
Rp51
sg34
Nsbsg41
g2
(g9
g4
Ntp52
Rp53
(dp54
g13
I00
sg14
g15
sg16
g17
((lp55
tp56
Rp57
sg23
g41
sg24
(dp58
sg29
g17
((lp59
tp60
Rp61
sg34
Nsbsg37
g2
(g9
g4
Ntp62
Rp63
(dp64
g13
I00
sg14
g15
sg16
g17
((lp65
S'transferOutputs'
p66
aS'workArea'
p67
atp68
Rp69
sg23
g37
sg24
(dp70
sg66
I01
sg29
g17
((lp71
tp72
Rp73
sg34
Nsg67
S'crab_projects'
p74
sbsg39
g2
(g9
g4
Ntp75
Rp76
(dp77
S'inputDataset'
p78
S'/ZJetsToNuNu_HT-200To400_TuneCP5_13TeV-madgraphMLM-pythia8/RunIISummer20UL18RECO-106X_upgrade2018_realistic_v11_L1v1-v1/AODSIM'
p79
sS'outputDatasetTag'
p80
S'ZJetToNuNu_HT-200To400'
p81
sg13
I00
sS'splitting'
p82
S'Automatic'
p83
sg14
g15
sg16
g17
((lp84
g78
ag80
aS'publication'
p85
aS'partialDataset'
p86
aS'inputDBS'
p87
ag82
atp88
Rp89
sg86
I01
sg23
g39
sg87
S'global'
p90
sg24
(dp91
sg29
g17
((lp92
tp93
Rp94
sg34
Nsg85
I01
sbsg38
g2
(g9
g4
Ntp95
Rp96
(dp97
S'numCores'
p98
I4
sg13
I00
sg14
g15
sg16
g17
((lp99
S'psetName'
p100
aS'pluginName'
p101
ag98
aS'maxMemoryMB'
p102
atp103
Rp104
sg23
g38
sg24
(dp105
sg101
S'Analysis'
p106
sg29
g17
((lp107
tp108
Rp109
sg100
S'/users/alikaan.gueven/COPY/CMSSW_10_6_28/src/SoftDisplacedVertices/CustomMiniAOD/configuration/MC_UL18_CustomMiniAOD.py'
p110
sg34
Nsg102
I8000
sbsbsS'voGroup'
p111
g15
sS'Server'
p112
S'cmsweb.cern.ch'
p113
sS'instance'
p114
S'prod'
p115
sS'RequestName'
p116
V240226_105011:aguven_crab_20240226_114950
p117
sS'voRole'
p118
S'NULL'
p119
sS'Port'
p120
g15
s.