(dp0
S'OriginalConfig'
p1
ccopy_reg
_reconstructor
p2
(cWMCore.Configuration
Configuration
p3
c__builtin__
object
p4
Ntp5
Rp6
(dp7
S'Site'
p8
g2
(cWMCore.Configuration
ConfigSection
p9
g4
Ntp10
Rp11
(dp12
S'_internal_skipChecks'
p13
I00
sS'_internal_documentation'
p14
S''
p15
sS'_internal_settings'
p16
c__builtin__
set
p17
((lp18
S'blacklist'
p19
aS'storageSite'
p20
atp21
Rp22
sS'_internal_name'
p23
g8
sS'_internal_docstrings'
p24
(dp25
sg19
(lp26
S'T2_BR_SPRACE'
p27
asS'_internal_children'
p28
g17
((lp29
tp30
Rp31
sg20
S'T2_AT_Vienna'
p32
sS'_internal_parent_ref'
p33
NsbsS'_internal_sections'
p34
(lp35
S'General'
p36
aS'JobType'
p37
aS'Data'
p38
ag8
aS'User'
p39
aS'Debug'
p40
asg39
g2
(g9
g4
Ntp41
Rp42
(dp43
g13
I00
sg14
g15
sg16
g17
((lp44
tp45
Rp46
sg23
g39
sg24
(dp47
sg28
g17
((lp48
tp49
Rp50
sg33
Nsbsg40
g2
(g9
g4
Ntp51
Rp52
(dp53
g13
I00
sg14
g15
sg16
g17
((lp54
tp55
Rp56
sg23
g40
sg24
(dp57
sg28
g17
((lp58
tp59
Rp60
sg33
Nsbsg36
g2
(g9
g4
Ntp61
Rp62
(dp63
g13
I00
sg14
g15
sg16
g17
((lp64
S'transferOutputs'
p65
aS'workArea'
p66
aS'requestName'
p67
atp68
Rp69
sg23
g36
sg24
(dp70
sg65
I01
sg28
g17
((lp71
tp72
Rp73
sg67
S'Run2018B-15Feb2022_recoveryTask_pv11'
p74
sg33
Nsg66
S'crab_projects'
p75
sbsg38
g2
(g9
g4
Ntp76
Rp77
(dp78
S'outputDatasetTag'
p79
S'Run2018B-15Feb2022'
p80
sg13
I00
sS'splitting'
p81
S'FileBased'
p82
sS'unitsPerJob'
p83
I5
sg14
g15
sg16
g17
((lp84
g79
aS'publication'
p85
ag83
aS'userInputFiles'
p86
aS'partialDataset'
p87
aS'inputDBS'
p88
ag81
aS'outputPrimaryDataset'
p89
aS'totalUnits'
p90
atp91
Rp92
sg87
I01
sg23
g38
sg88
S'global'
p93
sg24
(dp94
sg28
g17
((lp95
tp96
Rp97
sg85
I01
sg89
S'MET'
p98
sg33
Nsg86
(lp99
S'/store/data/Run2018B/MET/AOD/15Feb2022_UL2018-v1/2530000/581431BA-5E51-8142-B066-2342BC997A3C.root\n'
p100
aS'/store/data/Run2018B/MET/AOD/15Feb2022_UL2018-v1/2530000/1DD0C174-0CDC-9B4E-B274-0CDE5CE26EBF.root\n'
p101
aS'/store/data/Run2018B/MET/AOD/15Feb2022_UL2018-v1/2530000/C50F29CF-1F5C-5546-BE82-3E59318F1B66.root\n'
p102
aS'/store/data/Run2018B/MET/AOD/15Feb2022_UL2018-v1/2530000/41220A19-AFDA-2148-BE19-9532906D901B.root\n'
p103
aS'/store/data/Run2018B/MET/AOD/15Feb2022_UL2018-v1/2530000/C4CE51D8-2E9D-B14B-A3D0-10DBE295495B.root\n'
p104
aS'/store/data/Run2018B/MET/AOD/15Feb2022_UL2018-v1/2530000/559C4417-A166-D340-B0C0-9A1A22F7FBE4.root\n'
p105
aS'/store/data/Run2018B/MET/AOD/15Feb2022_UL2018-v1/2530000/E48AD27E-FB6E-F244-8A57-60E6503647E4.root\n'
p106
aS'/store/data/Run2018B/MET/AOD/15Feb2022_UL2018-v1/2530000/26551973-38DF-9246-BB5D-8976D7E6AEED.root\n'
p107
aS'/store/data/Run2018B/MET/AOD/15Feb2022_UL2018-v1/25210000/73C3309D-1491-EB45-A358-280AB434F5D6.root\n'
p108
aS'/store/data/Run2018B/MET/AOD/15Feb2022_UL2018-v1/2530000/01D8CEFB-EEF8-5747-9BE0-FA0AC2FB2350.root\n'
p109
aS'/store/data/Run2018B/MET/AOD/15Feb2022_UL2018-v1/2530000/B3003D7C-0CC4-874E-9575-394F7BC12B0D.root\n'
p110
aS'/store/data/Run2018B/MET/AOD/15Feb2022_UL2018-v1/2530000/6F3712B8-95FD-5B45-8A86-C794C6D18A39.root\n'
p111
aS'/store/data/Run2018B/MET/AOD/15Feb2022_UL2018-v1/2530000/E8677047-DDA2-6A49-82D4-4944BE20134C.root\n'
p112
aS'/store/data/Run2018B/MET/AOD/15Feb2022_UL2018-v1/2530000/F96CFA79-F0F5-E545-AE2D-E36CC438549C.root\n'
p113
aS'/store/data/Run2018B/MET/AOD/15Feb2022_UL2018-v1/2530000/C258C897-AF1F-384B-8450-93DDE0129DA7.root\n'
p114
aS'/store/data/Run2018B/MET/AOD/15Feb2022_UL2018-v1/2530000/F3E8F626-4C28-7B42-9C8C-7A0C0FA70A8D.root\n'
p115
aS'/store/data/Run2018B/MET/AOD/15Feb2022_UL2018-v1/2530000/4A7753E6-E07C-1843-8F22-8F3FBE9B3874.root\n'
p116
aS'/store/data/Run2018B/MET/AOD/15Feb2022_UL2018-v1/2530000/27E1DBCD-C788-9642-A903-DCC09BC60B80.root\n'
p117
aS'/store/data/Run2018B/MET/AOD/15Feb2022_UL2018-v1/2530000/62176AD1-6BA5-924D-ACBB-18C0CD77B417.root\n'
p118
aS'/store/data/Run2018B/MET/AOD/15Feb2022_UL2018-v1/2530000/53A4064A-5F8F-754A-8249-8F7398AD20F5.root\n'
p119
aS'/store/data/Run2018B/MET/AOD/15Feb2022_UL2018-v1/2530000/592D7D6C-2F3C-7241-B2AA-8B8D594C807C.root\n'
p120
aS'/store/data/Run2018B/MET/AOD/15Feb2022_UL2018-v1/2530000/E6187BFE-85FB-D140-9A0F-7D5C2E4B12D3.root\n'
p121
aS'/store/data/Run2018B/MET/AOD/15Feb2022_UL2018-v1/2530000/655B97A1-25DC-EE47-BEA7-D4A73B2C039D.root\n'
p122
aS'/store/data/Run2018B/MET/AOD/15Feb2022_UL2018-v1/2530000/9F1D85CD-785F-2B41-AB11-87220695AB94.root\n'
p123
aS'/store/data/Run2018B/MET/AOD/15Feb2022_UL2018-v1/2530000/46720932-2D62-9148-902B-11D4CBA6A916.root\n'
p124
aS'/store/data/Run2018B/MET/AOD/15Feb2022_UL2018-v1/2530000/6EF3BD05-69F9-984E-9BCF-3A3368CD3007.root\n'
p125
aS'/store/data/Run2018B/MET/AOD/15Feb2022_UL2018-v1/2530000/412D2902-B5D2-524E-9435-E5978748EF8C.root\n'
p126
aS'/store/data/Run2018B/MET/AOD/15Feb2022_UL2018-v1/2530000/AABF86C8-0293-AD4B-9EFD-F4B2E039A110.root\n'
p127
aS'/store/data/Run2018B/MET/AOD/15Feb2022_UL2018-v1/2530000/132447EA-2F10-8C43-A804-6DE9242EDECF.root\n'
p128
aS'/store/data/Run2018B/MET/AOD/15Feb2022_UL2018-v1/2530000/CD54863F-643C-6E43-86D1-C2EA7E816CEE.root\n'
p129
aS'/store/data/Run2018B/MET/AOD/15Feb2022_UL2018-v1/2530000/B730289F-05AC-E74C-92F3-9554F5F7524F.root\n'
p130
aS'/store/data/Run2018B/MET/AOD/15Feb2022_UL2018-v1/2530000/7702BD5F-2B26-7149-9849-08CF9ED09A75.root\n'
p131
aS'/store/data/Run2018B/MET/AOD/15Feb2022_UL2018-v1/2530000/7A1FB752-F8E9-E644-AC08-F39BC0DE64D1.root\n'
p132
asg90
I33
sbsg37
g2
(g9
g4
Ntp133
Rp134
(dp135
S'numCores'
p136
I4
sg13
I00
sg14
g15
sg16
g17
((lp137
S'psetName'
p138
aS'pluginName'
p139
ag136
aS'maxMemoryMB'
p140
atp141
Rp142
sg23
g37
sg24
(dp143
sg139
S'Analysis'
p144
sg28
g17
((lp145
tp146
Rp147
sg138
S'/users/alikaan.gueven/COPY/CMSSW_10_6_28/src/SoftDisplacedVertices/CustomMiniAOD/configuration/Data_UL18_CustomMiniAOD.py'
p148
sg33
Nsg140
I8000
sbsbsS'voGroup'
p149
g15
sS'Server'
p150
S'cmsweb.cern.ch'
p151
sS'instance'
p152
S'prod'
p153
sS'RequestName'
p154
V240301_091450:aguven_crab_Run2018B-15Feb2022_recoveryTask_pv11
p155
sS'voRole'
p156
S'NULL'
p157
sS'Port'
p158
g15
s.