(dp0
S'OriginalConfig'
p1
ccopy_reg
_reconstructor
p2
(cWMCore.Configuration
Configuration
p3
c__builtin__
object
p4
Ntp5
Rp6
(dp7
S'Site'
p8
g2
(cWMCore.Configuration
ConfigSection
p9
g4
Ntp10
Rp11
(dp12
S'_internal_skipChecks'
p13
I00
sS'_internal_documentation'
p14
S''
p15
sS'_internal_settings'
p16
c__builtin__
set
p17
((lp18
S'blacklist'
p19
aS'storageSite'
p20
atp21
Rp22
sS'_internal_name'
p23
g8
sS'_internal_docstrings'
p24
(dp25
sg19
(lp26
S'T2_BR_SPRACE'
p27
asS'_internal_children'
p28
g17
((lp29
tp30
Rp31
sg20
S'T2_AT_Vienna'
p32
sS'_internal_parent_ref'
p33
NsbsS'_internal_sections'
p34
(lp35
S'General'
p36
aS'JobType'
p37
aS'Data'
p38
ag8
aS'User'
p39
aS'Debug'
p40
asg39
g2
(g9
g4
Ntp41
Rp42
(dp43
g13
I00
sg14
g15
sg16
g17
((lp44
tp45
Rp46
sg23
g39
sg24
(dp47
sg28
g17
((lp48
tp49
Rp50
sg33
Nsbsg40
g2
(g9
g4
Ntp51
Rp52
(dp53
g13
I00
sg14
g15
sg16
g17
((lp54
tp55
Rp56
sg23
g40
sg24
(dp57
sg28
g17
((lp58
tp59
Rp60
sg33
Nsbsg36
g2
(g9
g4
Ntp61
Rp62
(dp63
g13
I00
sg14
g15
sg16
g17
((lp64
S'transferOutputs'
p65
aS'workArea'
p66
atp67
Rp68
sg23
g36
sg24
(dp69
sg65
I01
sg28
g17
((lp70
tp71
Rp72
sg33
Nsg66
S'crab_projects'
p73
sbsg38
g2
(g9
g4
Ntp74
Rp75
(dp76
S'inputDataset'
p77
S'/MET/aguven-Run2018A-15Feb2022_UL2018-v1-dd1ffd5402fcc3f75701653b84d21aa6/USER'
p78
sS'outputDatasetTag'
p79
S'Run2018A-15Feb2022_CustomNanoAOD_golden_v1'
p80
sg13
I00
sS'splitting'
p81
S'Automatic'
p82
sg14
g15
sg16
g17
((lp83
g77
ag79
aS'publication'
p84
aS'inputDBS'
p85
ag81
atp86
Rp87
sg23
g38
sg85
S'phys03'
p88
sg24
(dp89
sg28
g17
((lp90
tp91
Rp92
sg33
Nsg84
I01
sbsg37
g2
(g9
g4
Ntp93
Rp94
(dp95
S'numCores'
p96
I4
sg13
I00
sg14
g15
sg16
g17
((lp97
S'psetName'
p98
aS'pluginName'
p99
ag96
aS'maxMemoryMB'
p100
atp101
Rp102
sg23
g37
sg24
(dp103
sg99
S'Analysis'
p104
sg28
g17
((lp105
tp106
Rp107
sg98
S'/users/alikaan.gueven/COPY/CMSSW_10_6_28/src/SoftDisplacedVertices/CustomNanoAOD/configuration/Data_UL18_CustomNanoAOD.py'
p108
sg33
Nsg100
I8000
sbsbsS'voGroup'
p109
g15
sS'Server'
p110
S'cmsweb.cern.ch'
p111
sS'instance'
p112
S'prod'
p113
sS'RequestName'
p114
V240326_152133:aguven_crab_20240326_162106
p115
sS'voRole'
p116
S'NULL'
p117
sS'Port'
p118
g15
s.